; Function Attrs: mustprogress nofree norecurse nosync nounwind willreturn memory(argmem: read) uwtable
define noundef range(i32 0, 3) i32 @_ZNK3zmq16null_mechanism_t6statusEv(ptr noundef nonnull readonly align 8 captures(none) dereferenceable(1576) %0) unnamed_addr #10 align 2 {
  %2 = getelementptr inbounds nuw i8, ptr %0, i64 72
  %3 = load i8, ptr %2, align 8, !tbaa !14, !range !18, !noundef !19
  %4 = trunc nuw i8 %3 to i1
  %5 = getelementptr inbounds nuw i8, ptr %0, i64 74
  %6 = load i8, ptr %5, align 2, !tbaa !68, !range !18
  %7 = trunc nuw i8 %6 to i1
  %8 = select i1 %4, i1 %7, i1 false
  br i1 %8, label %19, label %._crit_edge

._crit_edge:                                      ; preds = %1
  %.not = xor i1 %4, true
  %.mux = select i1 %.not, i1 %7, i1 false
  %9 = getelementptr inbounds nuw i8, ptr %0, i64 73
  %10 = load i8, ptr %9, align 1, !range !18
  %11 = trunc nuw i8 %10 to i1
  %12 = select i1 %4, i1 true, i1 %11
  %13 = getelementptr inbounds nuw i8, ptr %0, i64 75
  %14 = load i8, ptr %13, align 1, !range !18
  %15 = trunc nuw i8 %14 to i1
  %16 = select i1 %.mux, i1 true, i1 %15
  %17 = select i1 %12, i1 %16, i1 false
  %18 = select i1 %17, i32 2, i32 0
  br label %19

19:                                               ; preds = %1, %._crit_edge
  %.0 = phi i32 [ %18, %._crit_edge ], [ 1, %1 ]
  ret i32 %.0
}